; Function Attrs: mustprogress uwtable
define void @_ZNK5faiss20IndexScalarQuantizer9sa_encodeElPKfPh(ptr noundef nonnull align 8 dereferenceable(144) %0, i64 noundef %1, ptr noundef %2, ptr noundef %3) unnamed_addr #1 align 2 personality ptr @__gxx_personality_v0 {
  %5 = alloca %"class.std::__cxx11::basic_string", align 8
  %6 = getelementptr inbounds i8, ptr %0, i64 25
  %7 = load i8, ptr %6, align 1
  %8 = and i8 %7, 1
  %.not = icmp eq i8 %8, 0
  br i1 %.not, label %9, label %25

9:                                                ; preds = %4
  call void @_ZNSt7__cxx1112basic_stringIcSt11char_traitsIcESaIcEEC1Ev(ptr noundef nonnull align 8 dereferenceable(32) %5) #10
  %10 = call i32 (ptr, i64, ptr, ...) @snprintf(ptr noundef null, i64 noundef 0, ptr noundef nonnull @.str, ptr noundef nonnull @.str.3) #10
  %11 = add nsw i32 %10, 1
  %12 = sext i32 %11 to i64
  invoke void @_ZNSt7__cxx1112basic_stringIcSt11char_traitsIcESaIcEE6resizeEm(ptr noundef nonnull align 8 dereferenceable(32) %5, i64 noundef %12)
          to label %13 unwind label %20

13:                                               ; preds = %9
  %14 = invoke noundef nonnull align 1 dereferenceable(1) ptr @_ZNSt7__cxx1112basic_stringIcSt11char_traitsIcESaIcEEixEm(ptr noundef nonnull align 8 dereferenceable(32) %5, i64 noundef 0)
          to label %15 unwind label %20

15:                                               ; preds = %13
  %16 = call noundef i64 @_ZNKSt7__cxx1112basic_stringIcSt11char_traitsIcESaIcEE4sizeEv(ptr noundef nonnull align 8 dereferenceable(32) %5) #10
  %17 = call i32 (ptr, i64, ptr, ...) @snprintf(ptr noundef nonnull %14, i64 noundef %16, ptr noundef nonnull @.str, ptr noundef nonnull @.str.3) #10
  %18 = call ptr @__cxa_allocate_exception(i64 40) #10
  invoke void @_ZN5faiss14FaissExceptionC1ERKNSt7__cxx1112basic_stringIcSt11char_traitsIcESaIcEEEPKcSA_i(ptr noundef nonnull align 8 dereferenceable(40) %18, ptr noundef nonnull align 8 dereferenceable(32) %5, ptr noundef nonnull @__PRETTY_FUNCTION__._ZNK5faiss20IndexScalarQuantizer9sa_encodeElPKfPh, ptr noundef nonnull @.str.2, i32 noundef 104)
          to label %19 unwind label %22

19:                                               ; preds = %15
  invoke void @__cxa_throw(ptr nonnull %18, ptr nonnull @_ZTIN5faiss14FaissExceptionE, ptr nonnull @_ZN5faiss14FaissExceptionD2Ev) #18
          to label %27 unwind label %20

20:                                               ; preds = %19, %13, %9
  %21 = landingpad { ptr, i32 }
          cleanup
  br label %24

22:                                               ; preds = %15
  %23 = landingpad { ptr, i32 }
          cleanup
  call void @__cxa_free_exception(ptr %18) #10
  br label %24

24:                                               ; preds = %22, %20
  %.pn = phi { ptr, i32 } [ %21, %20 ], [ %23, %22 ]
  call void @_ZNSt7__cxx1112basic_stringIcSt11char_traitsIcESaIcEED1Ev(ptr noundef nonnull align 8 dereferenceable(32) %5) #10
  resume { ptr, i32 } %.pn

25:                                               ; preds = %4
  %26 = getelementptr inbounds i8, ptr %0, i64 72
  tail call void @_ZNK5faiss15ScalarQuantizer13compute_codesEPKfPhm(ptr noundef nonnull align 8 dereferenceable(72) %26, ptr noundef %2, ptr noundef %3, i64 noundef %1)
  ret void

27:                                               ; preds = %19
  unreachable
}